ccopy_reg
_reconstructor
p0
(cpandas.core.frame
DataFrame
p1
c__builtin__
object
p2
Ntp3
Rp4
(dp5
S'_metadata'
p6
(lp7
sS'_typ'
p8
S'dataframe'
p9
sS'_data'
p10
g0
(cpandas.core.internals
BlockManager
p11
g2
Ntp12
Rp13
((lp14
cpandas.indexes.base
_new_Index
p15
(cpandas.indexes.base
Index
p16
(dp17
S'data'
p18
cnumpy.core.multiarray
_reconstruct
p19
(cnumpy
ndarray
p20
(I0
tp21
S'b'
p22
tp23
Rp24
(I1
(I8
tp25
cnumpy
dtype
p26
(S'O8'
p27
I0
I1
tp28
Rp29
(I3
S'|'
p30
NNNI-1
I-1
I63
tp31
bI00
(lp32
S''
p33
aS'Comment'
p34
aS'HAMP'
p35
aS'PG Comment'
p36
aS'PRA'
p37
aS'Param'
p38
aS'Source'
p39
aS'Value'
p40
atp41
bsS'name'
p42
Nstp43
Rp44
ag15
(cpandas.indexes.range
RangeIndex
p45
(dp46
S'start'
p47
I0
sS'step'
p48
I1
sS'stop'
p49
I75
sg42
Nstp50
Rp51
a(lp52
g19
(g20
(I0
tp53
g22
tp54
Rp55
(I1
(I8
I75
tp56
g29
I00
(lp57
g33
ag33
ag33
aF259270.7127
aF172847.1418
ag33
ag33
ag33
ag33
ag33
ag33
ag33
ag33
ag33
ag33
ag33
ag33
ag33
ag33
ag33
ag33
ag33
ag33
ag33
ag33
ag33
ag33
ag33
ag33
ag33
ag33
ag33
ag33
ag33
ag33
ag33
ag33
ag33
ag33
ag33
ag33
ag33
ag33
ag33
ag33
ag33
ag33
ag33
ag33
ag33
ag33
ag33
ag33
ag33
ag33
ag33
ag33
ag33
ag33
ag33
ag33
ag33
ag33
ag33
ag33
ag33
ag33
ag33
ag33
ag33
ag33
ag33
ag33
ag33
ag33
aS'Fell 3% in 2010 and 4% in 2011 and then started growing'
p58
ag33
ag33
aS'Mean'
p59
aS'Mean'
p60
aS'Mean'
p61
ag33
ag33
ag33
ag33
ag33
ag33
ag33
ag33
ag33
ag33
ag33
ag33
ag33
ag33
ag33
ag33
ag33
ag33
ag33
ag33
ag33
ag33
ag33
ag33
ag33
ag33
aS'Calculated using means above'
p62
aS'Calculated in the data, then take means. Should be same as row above, must differ due to differing missing values'
p63
aS'Main difference is capitalization of arrears. Increase of LTV of 0.1 is 0.33 years of income, or 4 months. If mortgage payments are 50% of income, this is 8 months delinquent'
p64
aS'Note that 122 is currently the number we report in our summary stats in the paper'
p65
ag33
ag33
ag33
ag33
aS'So when collateral constraint is zero, start responding at about 115 LTV.'
p66
ag33
ag33
ag33
ag33
ag33
ag33
aS'So PRA is worth more in way we have modelled it than in reality, where it is closer to 0.75'
p67
ag33
ag33
ag33
ag33
ag33
ag33
ag33
ag33
ag33
ag33
ag33
ag33
ag33
ag33
ag33
ag33
ag33
ag33
ag33
ag33
ag33
ag33
ag33
ag33
ag33
ag33
ag33
ag33
ag33
ag33
aF5.41
aF3.63
aF0.25
ag33
ag33
ag33
ag33
ag33
ag33
ag33
ag33
ag33
ag33
ag33
ag33
ag33
ag33
ag33
ag33
ag33
ag33
ag33
ag33
ag33
ag33
ag33
ag33
ag33
ag33
aI142
aI152
aI149
aI3
ag33
ag33
ag33
ag33
ag33
ag33
ag33
ag33
ag33
aF0.88
aF-3.61
aF-2.73
ag33
ag33
ag33
ag33
ag33
ag33
ag33
ag33
ag33
ag33
ag33
aS'Large share of income'
p68
ag33
ag33
ag33
ag33
ag33
ag33
ag33
ag33
ag33
ag33
ag33
ag33
aS'Campbell and Cocco (2015), from Hiummelberg, Mayer,and Sinai (2005)'
p69
aS'Campbell and Cocco (2015), from Hiummelberg, Mayer,and Sinai'
p70
ag33
ag33
ag33
ag33
aS'I manually reset this to 1.5*initial_price'
p71
ag33
ag33
ag33
ag33
ag33
ag33
ag33
ag33
ag33
ag33
ag33
ag33
ag33
ag33
ag33
ag33
ag33
ag33
ag33
ag33
ag33
ag33
ag33
ag33
ag33
ag33
ag33
ag33
ag33
ag33
ag33
ag33
ag33
ag33
ag33
ag33
ag33
ag33
ag33
ag33
ag33
ag33
ag33
ag33
ag33
ag33
ag33
ag33
ag33
ag33
ag33
ag33
ag33
ag33
ag33
ag33
ag33
ag33
ag33
ag33
ag33
ag33
ag33
ag33
ag33
ag33
ag33
ag33
ag33
ag33
ag33
ag33
ag33
ag33
aF5.08
aF3.25
aF1.7
ag33
ag33
ag33
ag33
ag33
ag33
ag33
ag33
ag33
ag33
ag33
ag33
ag33
ag33
ag33
ag33
ag33
ag33
ag33
ag33
ag33
ag33
ag33
ag33
ag33
ag33
aI104
aI111
aI122
aI-11
aF-1.83
aF-0.13
ag33
ag33
ag33
ag33
ag33
ag33
ag33
aF1.18
aF-2.58
aF-1.4
ag33
ag33
ag33
ag33
ag33
ag33
ag33
ag33
ag33
ag33
ag33
ag33
ag33
ag33
ag33
ag33
ag33
ag33
ag33
ag33
ag33
ag33
ag33
ag33
ag33
ag33
ag33
aS'annual_hp_growth'
p72
aS'collateral_constraint'
p73
aS'int_rate'
p74
aS'baseline_debt'
p75
aS'initial_price'
p76
aS'pra_forgive'
p77
aS'hsg_rent_p'
p78
aS'hsg_own_p'
p79
aS'maint'
p80
aS'inc_unemp'
p81
aS'prb_unemp'
p82
aS'inc_shk_rescale'
p83
aS'cash_on_hand'
p84
aS'Boom parameters'
p85
aS'annual_hp_growth'
p86
aS'Initial debt'
p87
aS'Assumed initial LTV'
p88
aS'Initial price'
p89
aS'New price'
p90
aS'mortgagor_coh'
p91
aS'HELOC experiment'
p92
aS'heloc_limit'
p93
aS'rd parameters'
p94
aS'default_rate'
p95
aS'baseline_debt_rd'
p96
aS'post_mod_ltv'
p97
ag33
aS'rent_if_default_first_period'
p98
aS'Period 1-5 payment to income'
p99
aS'Period t>5 payment to income'
p100
aS'rent_at_age_65'
p101
ag33
aS'Implied post-modLTV'
p102
aS'Calculated post-mod LTV'
p103
aS'Post-mod LTV using post-mod UPB'
p104
aS'Implied arrears'
p105
aS'Pre-mod collateral as share of income'
p106
aS'Post-mod collateral as share of income'
p107
aS'Outstanding question for PN (low priority): why does calculated post-mod LTV differ from post-mod LTV using post-mod UPB? Pascal says arrears. Why are there differential arrears for HAMP vs PRA?'
p108
aS'implied pre-mod LTV'
p109
aS'LTV of 0.5 years of income underwater'
p110
ag33
aS'Payment reduction in dollars'
p111
ag33
aS'HAMP NPV calculations (discount factor 0.96, age at mod 45)'
p112
aS'PDV of sale value'
p113
aS'PDV of payments'
p114
aS'PDV of mortgage (sum of two above)'
p115
ag33
aS'HELOC limit, dollars'
p116
ag33
aS'LTV ratio'
p117
aS'Home price'
p118
aS'Implied debt'
p119
aS'New debt after 0.1 grant'
p120
aS'New LTV'
p121
ag33
aS'Price at age 65'
p122
aS'Original rental cost at age 65'
p123
aS'Rental cost adding 4% maintenance and property taxes'
p124
aS'Rental cost with new user cost'
p125
aS'Age 45 rental cost'
p126
ag33
aS'Price at age 75'
p127
aS'Rental cost at age 75'
p128
aS'Rental cost adding 4% maintenance and property taxes'
p129
ag33
aS'Price at age 65 under new 0.9% inflation inflation'
p130
aS'Original rental cost at age 65'
p131
aS'Rental cost adding 4% maintenance and property taxes'
p132
ag33
ag33
aS'Maintenance cost'
p133
aS'Property tax rate'
p134
aS'Initial property and maintenance cost'
p135
aS'Average real growth from FHFA between 1990 and 2010'
p136
aS'Change in average CLTV per CoreLogic'
p137
aS'Freddie Mac conforming loan survey, average July 2010 through July 2014, deflated using expected inflation from Treausry yield https://www.treasury.gov/resource-center/data-chart-center/interest-rates/Pages/Historic-Yield-Data-Visualization.aspx'
p138
aS'HAMP-TU Matched Sample'
p139
aS'HAMP-TU Matched Sample'
p140
aS'HAMP-TU Matched Sample'
p141
aS'Interest cost + Taxes + maintenance'
p142
aS'Taxes + maintenance. suggestion: previous was 0.04'
p143
aS'Does not grow w home value'
p144
aS'Eyeballed average of 1-yr 10th percentile values in tab C.1 col H of Guvenen for 2008-2010: https://fguvenendotcom.files.wordpress.com/2014/04/gos_2014_appendix_tables_in_excel.xlsx'
p145
aS'10% risk of ending up in bottom decile in Guvennen JPE'
p146
aS'baseline is 0.1 so 1.4*0.1 = 0.14'
p147
aS'Bernstein 2015 Figure 7 shows income rising by 15% in the two years after a mortgage mod'
p148
ag33
aS'FHFA. Real growth during boom. See hampra/data/HPI_PO_summary_edit'
p149
aS'Assume debt level (and so housing payments) are same'
p150
aS'Just assuming high leveraged group (hoping to Match Mian and Sufi 18 cents MPC)'
p151
ag33
ag33
aS'I calculated in our 2013 SCF microdata for wage-earners with at least $15K in wage income: 39750 median total financial assets and 72031 median in income. So that gives 1.55. When I add an additional screen of having a mortgage, then I get a ratio of 1.97.'
p152
ag33
aS'As a share of income'
p153
ag33
ag33
ag33
ag33
ag33
ag33
ag33
ag33
ag33
ag33
ag33
ag33
ag33
ag33
ag33
ag33
ag33
ag33
ag33
ag33
ag33
ag33
aS'Difference'
p154
aF0.3
aF1.03
aF1.33
ag33
aS'Average unsused HELOC for homeowners is about $10,000 in NY Fed credit panel. Give people twice this'
p155
ag33
ag33
ag33
ag33
ag33
ag33
ag33
ag33
ag33
ag33
ag33
ag33
ag33
ag33
ag33
ag33
ag33
ag33
ag33
ag33
ag33
ag33
ag33
ag33
ag33
aF0.009
aF0.2
aF0.02
aF4.88
aF3.25
aF1.45
aF0.026
aF0.015
aF0.025
aF0.5
aF0.1
aF1.4
aF0.85
ag33
aF0.06
aF4.88
aI95
aF4.64
aF4.91
aI2
ag33
aF0.377
ag33
aF0.07
aF3.87
aI108
ag33
aF0.08
aF0.22
aF0.15
aF0.101
ag33
aI106
ag33
ag33
ag33
ag33
ag33
ag33
aI150
aF1.154
ag33
aS'$3,228'
p156
ag33
ag33
ag33
ag33
ag33
ag33
aI20000
ag33
aI117
aF3.25
aF3.80691909
aF3.70691909
aF113.9266486
ag33
aF3.89234305
aF0.0544928027
aF0.2101865247
aF0.1012009193
aF0.084598202
ag33
aF4.257187439
aF0.05960062414
aF0.2298881217
ag33
aF3.89234305
aF0.0544928027
aF0.2101865247
ag33
ag33
aF0.025
aF0.015
aF0.13015108
atp157
ba(lp158
g15
(g16
(dp159
g18
g19
(g20
(I0
tp160
g22
tp161
Rp162
(I1
(I8
tp163
g29
I00
(lp164
g33
ag34
ag35
ag36
ag37
ag38
ag39
ag40
atp165
bsg42
Nstp166
Rp167
a(dp168
S'0.14.1'
p169
(dp170
S'axes'
p171
g14
sS'blocks'
p172
(lp173
(dp174
S'mgr_locs'
p175
c__builtin__
slice
p176
(I0
I8
I1
tp177
Rp178
sS'values'
p179
g55
sasstp180
bsb.