ccopy_reg
_reconstructor
p0
(cpandas.core.frame
DataFrame
p1
c__builtin__
object
p2
Ntp3
Rp4
(dp5
S'_metadata'
p6
(lp7
sS'_typ'
p8
S'dataframe'
p9
sS'_data'
p10
g0
(cpandas.core.internals
BlockManager
p11
g2
Ntp12
Rp13
((lp14
cpandas.indexes.base
_new_Index
p15
(cpandas.indexes.base
Index
p16
(dp17
S'data'
p18
cnumpy.core.multiarray
_reconstruct
p19
(cnumpy
ndarray
p20
(I0
tp21
S'b'
p22
tp23
Rp24
(I1
(I7
tp25
cnumpy
dtype
p26
(S'O8'
p27
I0
I1
tp28
Rp29
(I3
S'|'
p30
NNNI-1
I-1
I63
tp31
bI00
(lp32
S''
p33
aS'Comment'
p34
aS'HAMP'
p35
aS'PRA'
p36
aS'Param'
p37
aS'Source'
p38
aS'Value'
p39
atp40
bsS'name'
p41
Nstp42
Rp43
ag15
(cpandas.indexes.range
RangeIndex
p44
(dp45
S'start'
p46
I0
sS'step'
p47
I1
sS'stop'
p48
I72
sg41
Nstp49
Rp50
a(lp51
g19
(g20
(I0
tp52
g22
tp53
Rp54
(I1
(I7
I72
tp55
g29
I00
(lp56
g33
ag33
ag33
ag33
ag33
ag33
ag33
ag33
ag33
ag33
ag33
ag33
ag33
ag33
ag33
ag33
ag33
ag33
ag33
ag33
ag33
ag33
ag33
ag33
ag33
ag33
ag33
ag33
ag33
aS'2.95%'
p57
ag33
ag33
ag33
ag33
ag33
ag33
ag33
ag33
ag33
ag33
ag33
ag33
ag33
ag33
ag33
ag33
ag33
ag33
ag33
ag33
ag33
ag33
ag33
ag33
ag33
ag33
ag33
ag33
ag33
ag33
ag33
ag33
ag33
ag33
ag33
ag33
ag33
ag33
ag33
ag33
ag33
ag33
aS'Fell 3% in 2010 and 4% in 2011 and then started growing'
p58
ag33
ag33
aS'Mean'
p59
aS'Mean'
p60
aS'Mean'
p61
ag33
ag33
aS"Tables 1 and Table 3 show that 15-20% of families have an income shock equal to 30% of their income. We are basically extending this assumption further into the tail linearly, but don't have any good ground for that choice. https://www.federalreserve.gov/pubs/feds/2012/201264/201264pap.pdf"
p62
ag33
ag33
ag33
ag33
ag33
ag33
ag33
ag33
ag33
ag33
ag33
ag33
ag33
ag33
ag33
ag33
ag33
ag33
ag33
ag33
aS'Calculated using means above'
p63
aS'Calculated in the data, then take means. Should be same as row above, must differ due to differing missing values'
p64
aS'Main difference is capitalization of arrears. Increase of LTV of 0.1 is 0.33 years of income, or 4 months. If mortgage payments are 50% of income, this is 8 months delinquent'
p65
aS'Note that 122 is currently the number we report in our summary stats in the paper'
p66
ag33
ag33
ag33
ag33
aS'So when collateral constraint is zero, start responding at about 115 LTV.'
p67
ag33
ag33
ag33
ag33
ag33
ag33
aS'So PRA is worth more in way we have modelled it than in reality, where it is closer to 0.75'
p68
ag33
ag33
ag33
ag33
ag33
ag33
ag33
ag33
ag33
ag33
ag33
ag33
ag33
ag33
ag33
ag33
ag33
ag33
ag33
ag33
ag33
ag33
ag33
ag33
ag33
ag33
ag33
ag33
ag33
ag33
aF5.41
aF3.63
aF0.25
ag33
ag33
ag33
ag33
ag33
ag33
ag33
ag33
ag33
ag33
ag33
ag33
ag33
ag33
ag33
ag33
ag33
ag33
ag33
ag33
ag33
ag33
ag33
aI142
aI152
aI149
aI3
ag33
ag33
ag33
ag33
ag33
ag33
ag33
ag33
ag33
aF0.88
aF-3.61
aF-2.73
ag33
ag33
ag33
ag33
ag33
ag33
ag33
ag33
ag33
ag33
ag33
aS'Large share of income'
p69
ag33
ag33
ag33
ag33
ag33
ag33
ag33
ag33
ag33
ag33
ag33
ag33
aS'Campbell and Cocco (2015), from Hiummelberg, Mayer,and Sinai (2005)'
p70
aS'Campbell and Cocco (2015), from Hiummelberg, Mayer,and Sinai'
p71
ag33
ag33
ag33
ag33
aF5.08
aF3.25
aF1.7
ag33
ag33
ag33
ag33
ag33
ag33
ag33
ag33
ag33
ag33
ag33
ag33
ag33
ag33
ag33
ag33
ag33
ag33
ag33
ag33
ag33
ag33
ag33
aI104
aI111
aI122
aI-11
aF-1.83
aF-0.13
ag33
ag33
ag33
ag33
ag33
ag33
ag33
aF1.18
aF-2.58
aF-1.4
ag33
ag33
ag33
ag33
ag33
ag33
ag33
ag33
ag33
ag33
ag33
ag33
ag33
ag33
ag33
ag33
ag33
ag33
ag33
ag33
ag33
ag33
ag33
ag33
ag33
ag33
ag33
aS'annual_hp_growth'
p72
aS'collateral_constraint'
p73
aS'int_rate'
p74
aS'baseline_debt'
p75
aS'initial_price'
p76
aS'pra_forgive'
p77
aS'hsg_rent_p'
p78
aS'hsg_own_p'
p79
aS'inc_unemp'
p80
aS'prb_unemp'
p81
aS'cash_on_hand'
p82
aS'Boom parameters'
p83
aS'annual_hp_growth'
p84
aS'Initial debt'
p85
aS'Assumed initial LTV'
p86
aS'Initial price'
p87
aS'New price'
p88
aS'HELOC experiment'
p89
aS'heloc_limit'
p90
aS'rd parameters'
p91
aS'default_rate'
p92
aS'pre_mod_ltv'
p93
aS'post_mod_ltv'
p94
ag33
aS'rent_if_default_first_period'
p95
aS'Period 1-5 payment to income'
p96
aS'Period t>5 payment to income'
p97
aS'rent_at_age_65'
p98
ag33
aS'Implied post-modLTV'
p99
aS'Calculated post-mod LTV'
p100
aS'Post-mod LTV using post-mod UPB'
p101
aS'Implied arrears'
p102
aS'Pre-mod collateral as share of income'
p103
aS'Post-mod collateral as share of income'
p104
aS'Outstanding question for PN (low priority): why does calculated post-mod LTV differ from post-mod LTV using post-mod UPB? Pascal says arrears. Why are there differential arrears for HAMP vs PRA?'
p105
aS'implied pre-mod LTV'
p106
aS'LTV of 0.5 years of income underwater'
p107
ag33
aS'Payment reduction in dollars'
p108
ag33
aS'HAMP NPV calculations (discount factor 0.96, age at mod 45)'
p109
aS'PDV of sale value'
p110
aS'PDV of payments'
p111
aS'PDV of mortgage (sum of two above)'
p112
ag33
aS'HELOC limit, dollars'
p113
ag33
aS'LTV ratio'
p114
aS'Home price'
p115
aS'Implied debt'
p116
aS'New debt after 0.1 grant'
p117
aS'New LTV'
p118
ag33
aS'Price at age 65'
p119
aS'Original rental cost at age 65'
p120
aS'Rental cost adding 4% maintenance and property taxes'
p121
aS'Rental cost with new user cost'
p122
aS'Age 45 rental cost'
p123
ag33
aS'Price at age 75'
p124
aS'Rental cost at age 75'
p125
aS'Rental cost adding 4% maintenance and property taxes'
p126
ag33
aS'Price at age 65 under new 0.9% inflation inflation'
p127
aS'Original rental cost at age 65'
p128
aS'Rental cost adding 4% maintenance and property taxes'
p129
ag33
ag33
aS'Maintenance cost'
p130
aS'Property tax rate'
p131
aS'Initial property and maintenance cost'
p132
aS'Average real growth from FHFA between 1990 and 2010'
p133
aS'Change in average CLTV per CoreLogic'
p134
aS'Freddie Mac conforming loan survey, average July 2010 through July 2014, deflated using expected inflation from Treausry yield https://www.treasury.gov/resource-center/data-chart-center/interest-rates/Pages/Historic-Yield-Data-Visualization.aspx'
p135
aS'HAMP-TU Matched Sample'
p136
aS'HAMP-TU Matched Sample'
p137
aS'HAMP-TU Matched Sample'
p138
aS'Interest cost + Taxes + maintenance'
p139
aS'Taxes + maintenance. suggestion: previous was 0.04'
p140
aS'SCF, sort of'
p141
aS'SCF, sort of'
p142
aS'Bernstein 2015 Figure 7 shows income rising by 15% in the two years after a mortgage mod'
p143
ag33
aS'FHFA. Real growth during boom. See hampra/data/HPI_PO_summary_edit'
p144
aS'Assume debt level (and so housing payments) are same'
p145
aS'Just assuming high leveraged group (hoping to Match Mian and Sufi 18 cents MPC)'
p146
ag33
ag33
ag33
aS'As a share of income'
p147
ag33
ag33
ag33
ag33
ag33
ag33
ag33
ag33
ag33
ag33
ag33
ag33
ag33
ag33
ag33
ag33
ag33
ag33
ag33
ag33
ag33
ag33
aS'Difference'
p148
aF0.3
aF1.03
aF1.33
ag33
aS'Average unsused HELOC for homeowners is about $10,000 in NY Fed credit panel. Give people twice this'
p149
ag33
ag33
ag33
ag33
ag33
ag33
ag33
ag33
ag33
ag33
ag33
ag33
ag33
ag33
ag33
ag33
ag33
ag33
ag33
ag33
ag33
ag33
ag33
ag33
ag33
aF0.009
aF0.2
aF0.02
aF5.08
aF3.25
aF1.45
aF0.026
aF0.015
aF0.36
aF0.05
aF0.85
ag33
aF0.06
aF5.08
aI95
aF4.83
aF5.12
ag33
aF0.377
ag33
aF0.07
aF120.0
aI109
ag33
aF0.08
aF0.23
aF0.16
aF0.101
ag33
aI112
ag33
ag33
ag33
ag33
ag33
ag33
aI156
aF1.154
ag33
aS'$3,228'
p150
ag33
ag33
ag33
ag33
ag33
ag33
aI20000
ag33
aI117
aF3.25
aF3.80691909
aF3.70691909
aF113.9266486
ag33
aF3.89234305
aF0.0544928027
aF0.2101865247
aF0.1012009193
aF0.084598202
ag33
aF4.257187439
aF0.05960062414
aF0.2298881217
ag33
aF3.89234305
aF0.0544928027
aF0.2101865247
ag33
ag33
aF0.025
aF0.015
aF0.13015108
atp151
ba(lp152
g15
(g16
(dp153
g18
g19
(g20
(I0
tp154
g22
tp155
Rp156
(I1
(I7
tp157
g29
I00
(lp158
g33
ag34
ag35
ag36
ag37
ag38
ag39
atp159
bsg41
Nstp160
Rp161
a(dp162
S'0.14.1'
p163
(dp164
S'axes'
p165
g14
sS'blocks'
p166
(lp167
(dp168
S'mgr_locs'
p169
c__builtin__
slice
p170
(I0
I7
I1
tp171
Rp172
sS'values'
p173
g54
sasstp174
bsb.