(dp0
S'hsg_own_p'
p1
F0.015
sS'collateral_constraint'
p2
F0.2
sS'pra_forgive'
p3
F1.45
sS'int_rate'
p4
F0.02
sS'hsg_rent_p'
p5
F0.026
sS'annual_hp_growth'
p6
F0.009
sS'initial_price'
p7
F3.25
sS'baseline_debt'
p8
F5.08
s.