ccopy_reg
_reconstructor
p0
(cpandas.core.frame
DataFrame
p1
c__builtin__
object
p2
Ntp3
Rp4
(dp5
S'_metadata'
p6
(lp7
sS'_typ'
p8
S'dataframe'
p9
sS'_data'
p10
g0
(cpandas.core.internals
BlockManager
p11
g2
Ntp12
Rp13
((lp14
cpandas.indexes.base
_new_Index
p15
(cpandas.indexes.base
Index
p16
(dp17
S'data'
p18
cnumpy.core.multiarray
_reconstruct
p19
(cnumpy
ndarray
p20
(I0
tp21
S'b'
p22
tp23
Rp24
(I1
(I4
tp25
cnumpy
dtype
p26
(S'O8'
p27
I0
I1
tp28
Rp29
(I3
S'|'
p30
NNNI-1
I-1
I63
tp31
bI00
(lp32
S'LTV_Midpoint'
p33
aS'LTV_Ratio'
p34
aS'Share_2005'
p35
aS'Share_2010'
p36
atp37
bsS'name'
p38
Nstp39
Rp40
ag15
(cpandas.indexes.range
RangeIndex
p41
(dp42
S'start'
p43
I0
sS'step'
p44
I1
sS'stop'
p45
I10
sg38
Nstp46
Rp47
a(lp48
g19
(g20
(I0
tp49
g22
tp50
Rp51
(I1
(I2
I10
tp52
g26
(S'f8'
p53
I0
I1
tp54
Rp55
(I3
S'<'
p56
NNNI-1
I-1
I0
tp57
bI00
S'(\x87h\xd71\x121@(\x87h\xd71\x121@OJ\xf7)}U7@\xf0s\x95Q\xd9L,@\xd6\xd9V\xd4\xdc\x19%@y\xa9\x06\xd1\xc2\xaa\x1e@\x01&"\\\xfe\\\x01@_>\xb7\xa2]=\xff?\x0e6\xb9;\x12\xbf\x04@\x07\xd4zC\n\xa3\x07@1\x0b\x0e\xabO\xe2(@1\x0b\x0e\xabO\xe2(@\x91\x1af\xaaX\xa61@\xfb\xb1\x07b\xf2Y\'@\x81\xb0\xb6\xd6\xd5~\'@\x11E\xf5\x94\xa4\xcc%@N\x06\x08eh\x02\x1c@\xf5L\x13\xdcfS\x18@\xea\x0e\x13!6\x91\x19@}\xcbUY\xffV\r@'
p58
tp59
bag19
(g20
(I0
tp60
g22
tp61
Rp62
(I1
(I1
I10
tp63
g26
(S'i8'
p64
I0
I1
tp65
Rp66
(I3
S'<'
p67
NNNI-1
I-1
I0
tp68
bI00
S'\x0c\x00\x00\x00\x00\x00\x00\x00%\x00\x00\x00\x00\x00\x00\x00<\x00\x00\x00\x00\x00\x00\x00K\x00\x00\x00\x00\x00\x00\x00U\x00\x00\x00\x00\x00\x00\x00_\x00\x00\x00\x00\x00\x00\x00i\x00\x00\x00\x00\x00\x00\x00u\x00\x00\x00\x00\x00\x00\x00\x96\x00\x00\x00\x00\x00\x00\x00\xc8\x00\x00\x00\x00\x00\x00\x00'
p69
tp70
bag19
(g20
(I0
tp71
g22
tp72
Rp73
(I1
(I1
I10
tp74
g29
I00
(lp75
S'<25%'
p76
aS'25-49'
p77
aS'50-69'
p78
aS'70-79'
p79
aS'80-89'
p80
aS'90-99'
p81
aS'100-109'
p82
aS'110-124'
p83
aS'125-174'
p84
aS'>174'
p85
atp86
ba(lp87
g15
(g16
(dp88
g18
g19
(g20
(I0
tp89
g22
tp90
Rp91
(I1
(I2
tp92
g29
I00
(lp93
g35
ag36
atp94
bsg38
Nstp95
Rp96
ag15
(g16
(dp97
g18
g19
(g20
(I0
tp98
g22
tp99
Rp100
(I1
(I1
tp101
g29
I00
(lp102
g33
atp103
bsg38
Nstp104
Rp105
ag15
(g16
(dp106
g18
g19
(g20
(I0
tp107
g22
tp108
Rp109
(I1
(I1
tp110
g29
I00
(lp111
g34
atp112
bsg38
Nstp113
Rp114
a(dp115
S'0.14.1'
p116
(dp117
S'axes'
p118
g14
sS'blocks'
p119
(lp120
(dp121
S'mgr_locs'
p122
c__builtin__
slice
p123
(I2
I4
I1
tp124
Rp125
sS'values'
p126
g51
sa(dp127
g122
g123
(I0
I1
I1
tp128
Rp129
sg126
g62
sa(dp130
g122
g123
(I1
I2
I1
tp131
Rp132
sg126
g73
sasstp133
bsb.